target datalayout = "e-m:e-p270:32:32-p271:32:32-p272:64:64-i64:64-i128:128-f80:128-n8:16:32:64-S128"
target triple = "x86_64-pc-linux-gnu"

@.str.17 = private unnamed_addr constant [18 x i8] c"register_callback\00", align 1

; Function Attrs: nounwind uwtable
define internal ptr @monitoring_register_callback(ptr noundef %0, ptr noundef %1, i64 noundef %2) #0 {
  %4 = alloca ptr, align 8
  %5 = alloca ptr, align 8
  %6 = alloca i64, align 8
  %7 = alloca ptr, align 8
  %8 = alloca i32, align 4
  %9 = alloca i32, align 4
  %10 = alloca ptr, align 8
  store ptr %0, ptr %4, align 8, !tbaa !53
  store ptr %1, ptr %5, align 8, !tbaa !44
  store i64 %2, ptr %6, align 8, !tbaa !43
  call void @llvm.lifetime.start.p0(i64 8, ptr %7) #8
  store ptr null, ptr %7, align 8, !tbaa !53
  call void @llvm.lifetime.start.p0(i64 4, ptr %8) #8
  call void @llvm.lifetime.start.p0(i64 4, ptr %9) #8
  call void @llvm.lifetime.start.p0(i64 8, ptr %10) #8
  %11 = load i64, ptr %6, align 8, !tbaa !43
  %12 = icmp sle i64 3, %11
  br i1 %12, label %13, label %16

13:                                               ; preds = %3
  %14 = load i64, ptr %6, align 8, !tbaa !43
  %15 = icmp sle i64 %14, 3
  br i1 %15, label %21, label %16

16:                                               ; preds = %13, %3
  %17 = load i64, ptr %6, align 8, !tbaa !43
  %18 = call i32 @_PyArg_CheckPositional(ptr noundef @.str.17, i64 noundef %17, i64 noundef 3, i64 noundef 3)
  %19 = icmp ne i32 %18, 0
  br i1 %19, label %21, label %20

20:                                               ; preds = %16
  br label %52

21:                                               ; preds = %16, %13
  %22 = load ptr, ptr %5, align 8, !tbaa !44
  %23 = getelementptr ptr, ptr %22, i64 0
  %24 = load ptr, ptr %23, align 8, !tbaa !53
  %25 = call i32 @PyLong_AsInt(ptr noundef %24)
  store i32 %25, ptr %8, align 4, !tbaa !9
  %26 = load i32, ptr %8, align 4, !tbaa !9
  %27 = icmp eq i32 %26, -1
  br i1 %27, label %28, label %32

28:                                               ; preds = %21
  %29 = call ptr @PyErr_Occurred()
  %30 = icmp ne ptr %29, null
  br i1 %30, label %31, label %32

31:                                               ; preds = %28
  br label %52

32:                                               ; preds = %28, %21
  %33 = load ptr, ptr %5, align 8, !tbaa !44
  %34 = getelementptr ptr, ptr %33, i64 1
  %35 = load ptr, ptr %34, align 8, !tbaa !53
  %36 = call i32 @PyLong_AsInt(ptr noundef %35)
  store i32 %36, ptr %9, align 4, !tbaa !9
  %37 = load i32, ptr %9, align 4, !tbaa !9
  %38 = icmp eq i32 %37, -1
  br i1 %38, label %39, label %43

39:                                               ; preds = %32
  %40 = call ptr @PyErr_Occurred()
  %41 = icmp ne ptr %40, null
  br i1 %41, label %42, label %43

42:                                               ; preds = %39
  br label %52

43:                                               ; preds = %39, %32
  %44 = load ptr, ptr %5, align 8, !tbaa !44
  %45 = getelementptr ptr, ptr %44, i64 2
  %46 = load ptr, ptr %45, align 8, !tbaa !53
  store ptr %46, ptr %10, align 8, !tbaa !53
  %47 = load ptr, ptr %4, align 8, !tbaa !53
  %48 = load i32, ptr %8, align 4, !tbaa !9
  %49 = load i32, ptr %9, align 4, !tbaa !9
  %50 = load ptr, ptr %10, align 8, !tbaa !53
  %51 = call ptr @monitoring_register_callback_impl(ptr noundef %47, i32 noundef %48, i32 noundef %49, ptr noundef %50)
  store ptr %51, ptr %7, align 8, !tbaa !53
  br label %52

52:                                               ; preds = %43, %42, %31, %20
  %53 = load ptr, ptr %7, align 8, !tbaa !53
  call void @llvm.lifetime.end.p0(i64 8, ptr %10) #8
  call void @llvm.lifetime.end.p0(i64 4, ptr %9) #8
  call void @llvm.lifetime.end.p0(i64 4, ptr %8) #8
  call void @llvm.lifetime.end.p0(i64 8, ptr %7) #8
  ret ptr %53
}