; Function Attrs: nounwind uwtable
define internal ptr @monitoring_register_callback(ptr readnone captures(none) %0, ptr noundef readonly captures(none) %1, i64 noundef %2) #2 {
  %or.cond = icmp eq i64 %2, 3
  br i1 %or.cond, label %6, label %4

4:                                                ; preds = %3
  %5 = tail call i32 @_PyArg_CheckPositional(ptr noundef nonnull @.str.17, i64 noundef %2, i64 noundef 3, i64 noundef 3) #11
  %.not = icmp eq i32 %5, 0
  br i1 %.not, label %monitoring_register_callback_impl.exit, label %6

6:                                                ; preds = %3, %4
  %7 = load ptr, ptr %1, align 8, !tbaa !46
  %8 = tail call i32 @PyLong_AsInt(ptr noundef %7) #11
  %9 = icmp eq i32 %8, -1
  br i1 %9, label %10, label %12

10:                                               ; preds = %6
  %11 = tail call ptr @PyErr_Occurred() #11
  %.not15 = icmp eq ptr %11, null
  br i1 %.not15, label %12, label %monitoring_register_callback_impl.exit

12:                                               ; preds = %10, %6
  %13 = getelementptr i8, ptr %1, i64 8
  %14 = load ptr, ptr %13, align 8, !tbaa !46
  %15 = tail call i32 @PyLong_AsInt(ptr noundef %14) #11
  %16 = icmp eq i32 %15, -1
  br i1 %16, label %20, label %.split

.split:                                           ; preds = %12
  %17 = getelementptr i8, ptr %1, i64 16
  %18 = load ptr, ptr %17, align 8, !tbaa !46
  %19 = tail call fastcc ptr @monitoring_register_callback_impl(i32 noundef %8, i32 noundef %15, ptr noundef %18)
  br label %monitoring_register_callback_impl.exit

20:                                               ; preds = %12
  %21 = tail call ptr @PyErr_Occurred() #11
  %.not16 = icmp eq ptr %21, null
  br i1 %.not16, label %.split13, label %monitoring_register_callback_impl.exit

.split13:                                         ; preds = %20
  %or.cond.i.i = icmp ugt i32 %8, 5
  %22 = load ptr, ptr @PyExc_ValueError, align 8, !tbaa !46
  br i1 %or.cond.i.i, label %check_valid_tool.exit.i, label %24

check_valid_tool.exit.i:                          ; preds = %.split13
  %23 = tail call ptr (ptr, ptr, ...) @PyErr_Format(ptr noundef %22, ptr noundef nonnull @.str.27, i32 noundef %8) #11
  br label %monitoring_register_callback_impl.exit

24:                                               ; preds = %.split13
  tail call void @PyErr_SetString(ptr noundef %22, ptr noundef nonnull @.str.28) #11
  br label %monitoring_register_callback_impl.exit

monitoring_register_callback_impl.exit:           ; preds = %24, %check_valid_tool.exit.i, %.split, %20, %10, %4
  %.0 = phi ptr [ null, %10 ], [ null, %20 ], [ null, %4 ], [ %19, %.split ], [ null, %check_valid_tool.exit.i ], [ null, %24 ]
  ret ptr %.0
}